
Allocating common symbols
Common symbol       size              file

vgaRam              0x4               kernel.o
vgaHeight           0x1               kernel.o
vgaWidth            0x1               kernel.o

Memory Configuration

Name             Origin             Length             Attributes
*default*        0x0000000000000000 0xffffffffffffffff

Linker script and memory map


.text           0x0000000000100000     0x1000
                0x0000000000100000                text = .
                0x0000000000100000                _text = .
                0x0000000000100000                __text = .
 *(.text)
 .text          0x0000000000100000       0x2c start.o
                0x0000000000100000                mbHead
                0x0000000000100020                Start
 *fill*         0x000000000010002c        0x4 00
 .text          0x0000000000100030       0xc2 kernel.o
                0x0000000000100030                Kernel
 *fill*         0x00000000001000f2        0xe 00
 .text          0x0000000000100100       0x56 io.o
                0x0000000000100100                IO_outB
                0x0000000000100110                IO_outW
                0x0000000000100120                IO_outL
                0x0000000000100130                IO_inB
                0x0000000000100140                IO_inW
                0x0000000000100150                IO_inL
 *fill*         0x0000000000100156        0xa 00
 .text          0x0000000000100160       0x4e vga.o
                0x0000000000100180                VGA_getModule
 *fill*         0x00000000001001ae        0x2 00
 .text          0x00000000001001b0      0x4e8 console.o
                0x00000000001001d0                Console_printString
                0x0000000000100200                Console_printf
                0x0000000000100420                Console_printChar
                0x00000000001005c0                Console_clearScreen
                0x0000000000100650                Console_setColor
                0x0000000000100660                Console_getModule
 *fill*         0x0000000000100698        0x8 00
 .text          0x00000000001006a0       0x61 sys.o
                0x00000000001006a0                Sys_restart
                0x00000000001006c0                Sys_haltCPU
                0x00000000001006d0                Sys_panic
 *fill*         0x0000000000100701        0xf 00
 .text          0x0000000000100710      0x271 module.o
                0x0000000000100710                Module_load
                0x0000000000100980                Module_unload
 *fill*         0x0000000000100981        0xf 00
 .text          0x0000000000100990      0x1b4 mem.o
                0x0000000000100990                Memory_set
                0x0000000000100a30                Memory_copy
                0x0000000000101000                . = ALIGN (0x1000)
 *fill*         0x0000000000100b44      0x4bc 00

.rodata.str1.1  0x0000000000101000       0xec
 .rodata.str1.1
                0x0000000000101000       0x48 kernel.o
 .rodata.str1.1
                0x0000000000101048       0x12 vga.o
 .rodata.str1.1
                0x000000000010105a       0x61 console.o
                                         0x66 (size before relaxing)
 .rodata.str1.1
                0x00000000001010bb        0x9 sys.o
                                          0xe (size before relaxing)
 .rodata.str1.1
                0x00000000001010c4       0x14 module.o
                                         0x3d (size before relaxing)
 .rodata.str1.1
                0x00000000001010d8       0x14 mem.o
                                         0x3d (size before relaxing)

.eh_frame       0x00000000001010ec      0x2e8
 .eh_frame      0x00000000001010ec       0x34 kernel.o
 .eh_frame      0x0000000000101120       0x78 io.o
                                         0x90 (size before relaxing)
 .eh_frame      0x0000000000101198       0x28 vga.o
                                         0x40 (size before relaxing)
 .eh_frame      0x00000000001011c0      0x128 console.o
                                        0x140 (size before relaxing)
 .eh_frame      0x00000000001012e8       0x44 sys.o
                                         0x5c (size before relaxing)
 .eh_frame      0x000000000010132c       0x44 module.o
                                         0x5c (size before relaxing)
 .eh_frame      0x0000000000101370       0x64 mem.o
                                         0x7c (size before relaxing)

.iplt           0x00000000001013e0        0x0
 .iplt          0x0000000000000000        0x0 start.o

.rel.dyn        0x00000000001013d4        0x0
 .rel.iplt      0x0000000000000000        0x0 start.o
 .rel.text      0x0000000000000000        0x0 start.o

.data           0x00000000001013d4      0xc2c
                0x00000000001013d4                data = .
                0x00000000001013d4                _data = .
                0x00000000001013d4                __data = .
 *(.data)
 .data          0x00000000001013d4        0x0 kernel.o
 .data          0x00000000001013d4        0x0 io.o
 .data          0x00000000001013d4        0x0 vga.o
 .data          0x00000000001013d4        0x0 console.o
 .data          0x00000000001013d4        0x0 sys.o
 .data          0x00000000001013d4        0x0 module.o
 .data          0x00000000001013d4        0x0 mem.o
 *(.rodata)
                0x0000000000102000                . = ALIGN (0x1000)
 *fill*         0x00000000001013d4      0xc2c 00

.igot.plt       0x0000000000102000        0x0
 .igot.plt      0x0000000000000000        0x0 start.o

.bss            0x0000000000102000    0x11006
                0x0000000000102000                bss = .
                0x0000000000102000                _bss = .
                0x0000000000102000                __bss = .
 *(.bss)
 .bss           0x0000000000102000     0xff00 start.o
 .bss           0x0000000000111f00        0x0 kernel.o
 .bss           0x0000000000111f00        0x0 io.o
 .bss           0x0000000000111f00       0x34 vga.o
 *fill*         0x0000000000111f34        0xc 00
 .bss           0x0000000000111f40       0x94 console.o
 .bss           0x0000000000111fd4        0x0 sys.o
 *fill*         0x0000000000111fd4        0xc 00
 .bss           0x0000000000111fe0       0xa0 module.o
 .bss           0x0000000000112080        0x0 mem.o
                0x0000000000113000                . = ALIGN (0x1000)
 *fill*         0x0000000000112080      0xf80 00
 COMMON         0x0000000000113000        0x6 kernel.o
                0x0000000000113000                vgaRam
                0x0000000000113004                vgaHeight
                0x0000000000113005                vgaWidth
                0x0000000000113006                end = .
                0x0000000000113006                _end = .
                0x0000000000113006                __end = .
LOAD start.o
LOAD kernel.o
LOAD io.o
LOAD vga.o
LOAD console.o
LOAD sys.o
LOAD module.o
LOAD mem.o
OUTPUT(bootloader/kernel elf32-i386)

.comment        0x0000000000000000       0x11
 .comment       0x0000000000000000       0x11 kernel.o
                                         0x12 (size before relaxing)
 .comment       0x0000000000000000       0x12 io.o
 .comment       0x0000000000000000       0x12 vga.o
 .comment       0x0000000000000000       0x12 console.o
 .comment       0x0000000000000000       0x12 sys.o
 .comment       0x0000000000000000       0x12 module.o
 .comment       0x0000000000000000       0x12 mem.o
