
Allocating common symbols
Common symbol       size              file

Scheduler_removeProcess
                    0x4               sched.o
HeapMemory_realloc  0x4               heap.o
Scheduler_addProcess
                    0x4               sched.o
Scheduler_getNextProcess
                    0x4               sched.o
errno               0x4               heap.o
HeapMemory_free     0x4               heap.o
multibootInfo       0x4               kernel.o
PhysicalMemory_getInfo
                    0x4               pmm.o
HeapMemory_calloc   0x4               heap.o
vgaRam              0x4               vga.o
vgaHeight           0x1               vga.o
vgaWidth            0x1               vga.o
PhysicalMemory_allocateFrame
                    0x4               pmm.o
HeapMemory_alloc    0x4               heap.o
PhysicalMemory_freeFrame
                    0x4               pmm.o
Scheduler_getCurrentProcess
                    0x4               sched.o

Memory Configuration

Name             Origin             Length             Attributes
*default*        0x0000000000000000 0xffffffffffffffff

Linker script and memory map


.text           0x0000000000100000     0xf000
                0x0000000000100000                text = .
                0x0000000000100000                _text = .
                0x0000000000100000                __text = .
 *(.text)
 .text          0x0000000000100000       0x2c start.o
                0x0000000000100000                mbHead
                0x0000000000100020                Start
 .text          0x000000000010002c      0x3c7 kernel.o
                0x0000000000100148                Kernel
 *fill*         0x00000000001003f3        0x1 
 .text          0x00000000001003f4       0x45 vga.o
                0x0000000000100411                VGA_getModule
 *fill*         0x0000000000100439        0x3 
 .text          0x000000000010043c      0x5d7 console.o
                0x00000000001007a8                Console_printf
                0x000000000010085b                Console_printChar
                0x000000000010092e                Console_printString
                0x0000000000100956                Console_clearScreen
                0x00000000001009c1                Console_setColor
                0x00000000001009d7                Console_getModule
 *fill*         0x0000000000100a13        0x1 
 .text          0x0000000000100a14       0x7d sys.o
                0x0000000000100a3c                Sys_restart
                0x0000000000100a58                Sys_panic
 *fill*         0x0000000000100a91        0x3 
 .text          0x0000000000100a94      0x2ac module.o
                0x0000000000100a94                Module_load
                0x0000000000100cfa                Module_getLoadedModuleNames
                0x0000000000100d36                Module_getNumberOfLoadedModules
 .text          0x0000000000100d40      0x449 gdt.o
                0x0000000000101133                GDT_setTSS
                0x0000000000101158                GDT_getModule
 *fill*         0x0000000000101189        0x3 
 .text          0x000000000010118c      0x252 pic.o
                0x00000000001012c6                PIC8259_setMask
                0x0000000000101371                PIC8259_sendEOI
                0x00000000001013ad                PIC8259_getModule
 *fill*         0x00000000001013de        0x2 
 .text          0x00000000001013e0      0xdaa idt.o
                0x0000000000101f44                IDT_registerHandler
                0x0000000000101fcb                IDT_handlerException
                0x0000000000102069                IDT_handlerIRQ
                0x000000000010213b                IDT_getModule
 *fill*         0x000000000010218a        0x6 
 .text          0x0000000000102190      0x248 idtAsm.o
                0x00000000001021fd                IDT_handler0
                0x0000000000102204                IDT_handler1
                0x000000000010220b                IDT_handler2
                0x0000000000102215                IDT_handler3
                0x000000000010221f                IDT_handler4
                0x0000000000102229                IDT_handler5
                0x0000000000102233                IDT_handler6
                0x000000000010223d                IDT_handler7
                0x0000000000102247                IDT_handler8
                0x000000000010224f                IDT_handler9
                0x0000000000102259                IDT_handler10
                0x0000000000102261                IDT_handler11
                0x0000000000102269                IDT_handler12
                0x0000000000102271                IDT_handler13
                0x0000000000102279                IDT_handler14
                0x0000000000102281                IDT_handler15
                0x000000000010228b                IDT_handler16
                0x0000000000102295                IDT_handler17
                0x000000000010229f                IDT_handler18
                0x00000000001022a9                IDT_handler19
                0x00000000001022b3                IDT_handler20
                0x00000000001022bd                IDT_handler21
                0x00000000001022c7                IDT_handler22
                0x00000000001022d1                IDT_handler23
                0x00000000001022db                IDT_handler24
                0x00000000001022e5                IDT_handler25
                0x00000000001022ef                IDT_handler26
                0x00000000001022f9                IDT_handler27
                0x0000000000102303                IDT_handler28
                0x000000000010230d                IDT_handler29
                0x0000000000102317                IDT_handler30
                0x0000000000102321                IDT_handler31
                0x000000000010232b                IDT_handler128
                0x0000000000102338                IDT_request0
                0x0000000000102342                IDT_request1
                0x000000000010234c                IDT_request2
                0x0000000000102356                IDT_request3
                0x0000000000102360                IDT_request4
                0x000000000010236a                IDT_request5
                0x0000000000102374                IDT_request6
                0x000000000010237e                IDT_request7
                0x0000000000102388                IDT_request8
                0x0000000000102392                IDT_request9
                0x000000000010239c                IDT_request10
                0x00000000001023a6                IDT_request11
                0x00000000001023b0                IDT_request12
                0x00000000001023ba                IDT_request13
                0x00000000001023c4                IDT_request14
                0x00000000001023ce                IDT_request15
 .text          0x00000000001023d8      0x18f pit.o
                0x00000000001024bf                PIT8253_measureRuntime
                0x00000000001024e2                PIT8253_sleep
                0x0000000000102522                PIT8253_getModule
 *fill*         0x0000000000102567        0x1 
 .text          0x0000000000102568       0xa9 cpu.o
                0x0000000000102568                CPU_getCR
                0x00000000001025c9                CPU_setCR
 *fill*         0x0000000000102611        0x3 
 .text          0x0000000000102614      0x2e9 bitmap.o
                0x0000000000102614                Bitmap_setBit
                0x00000000001026c8                Bitmap_clearBit
                0x000000000010277e                Bitmap_isSet
                0x000000000010282d                Bitmap_toggle
                0x00000000001028e7                Bitmap_init
 *fill*         0x00000000001028fd        0x3 
 .text          0x0000000000102900      0x185 stack.o
                0x0000000000102900                Stack_push
                0x00000000001029a7                Stack_pop
                0x0000000000102a49                Stack_peek
                0x0000000000102a65                Stack_init
 *fill*         0x0000000000102a85        0x3 
 .text          0x0000000000102a88      0x129 math.o
                0x0000000000102a88                Math_abs
                0x0000000000102ac3                Math_sqrt
                0x0000000000102afe                Math_sin
                0x0000000000102b39                Math_cos
                0x0000000000102b74                Math_tan
 *fill*         0x0000000000102bb1        0x3 
 .text          0x0000000000102bb4       0x7e pmm.o
                0x0000000000102bf1                PhysicalMemory_getModule
 *fill*         0x0000000000102c32        0x2 
 .text          0x0000000000102c34      0x309 smm.o
                0x0000000000102c34                StackPMM_allocateFrame
                0x0000000000102c5e                StackPMM_freeFrame
                0x0000000000102cef                StackPMM_init
                0x0000000000102f04                StackPMM_getInfo
 *fill*         0x0000000000102f3d        0x3 
 .text          0x0000000000102f40      0x4e7 bmm.o
                0x000000000010309b                BitmapPMM_allocateFrame
                0x0000000000103119                BitmapPMM_freeFrame
                0x00000000001031b2                BitmapPMM_getInfo
                0x00000000001031f7                BitmapPMM_init
 *fill*         0x0000000000103427        0x1 
 .text          0x0000000000103428     0x129b vmm.o
                0x0000000000103a2c                VirtualMemory_getKernelDir
                0x0000000000103a36                VirtualMemory_switchPageDir
                0x0000000000103af6                VirtualMemory_mapKernel
                0x0000000000103d33                VirtualMemory_createPageDirectory
                0x0000000000103eb7                VirtualMemory_destroyPageDirectory
                0x000000000010413a                VirtualMemory_mapPage
                0x00000000001042e7                VirtualMemory_unmapPage
                0x00000000001044ac                VirtualMemory_getPhysicalAddress
                0x0000000000104674                VirtualMemory_getModule
 *fill*         0x00000000001046c3        0x1 
 .text          0x00000000001046c4      0x4c7 heap.o
                0x0000000000104798                HeapMemory_expand
                0x0000000000104b46                HeapMemory_getModule
 *fill*         0x0000000000104b8b        0x1 
 .text          0x0000000000104b8c     0x5f15 dl.o
                0x000000000010836f                DougLea_malloc
                0x00000000001088a4                DougLea_free
                0x00000000001096b9                DougLea_calloc
                0x000000000010a5e3                DougLea_realloc
                0x000000000010a6ef                DougLea_realloc_in_place
                0x000000000010a774                DougLea_memalign
                0x000000000010a7a9                DougLea_posix_memalign
                0x000000000010a84f                DougLea_valloc
                0x000000000010a881                DougLea_pvalloc
                0x000000000010a8c2                DougLea_independent_calloc
                0x000000000010a8f9                DougLea_independent_comalloc
                0x000000000010a92a                DougLea_bulk_free
                0x000000000010a94c                DougLea_malloc_trim
                0x000000000010a984                DougLea_malloc_footprint
                0x000000000010a98e                DougLea_malloc_max_footprint
                0x000000000010a998                DougLea_malloc_footprint_limit
                0x000000000010a9b8                DougLea_malloc_set_footprint_limit
                0x000000000010aa0e                DougLea_mallinfo
                0x000000000010aa31                DougLea_mallopt
                0x000000000010aa4b                DougLea_malloc_usable_size
 *fill*         0x000000000010aaa1        0x3 
 .text          0x000000000010aaa4      0x49a arrlist.o
                0x000000000010aaa4                ArrayList_get
                0x000000000010ab2a                ArrayList_add
                0x000000000010ac0b                ArrayList_getIndex
                0x000000000010ac48                ArrayList_exists
                0x000000000010ac6d                ArrayList_getSize
                0x000000000010ac78                ArrayList_remove
                0x000000000010aca7                ArrayList_removeAt
                0x000000000010ad76                ArrayList_isEmpty
                0x000000000010ad95                ArrayList_destroy
                0x000000000010adb9                ArrayList_new
 *fill*         0x000000000010af3e        0x2 
 .text          0x000000000010af40      0x1a8 dumbH.o
                0x000000000010af40                DumbHeapManager_malloc
                0x000000000010af9a                DumbHeapManager_realloc
                0x000000000010b00b                DumbHeapManager_calloc
                0x000000000010b07c                DumbHeapManager_free
 .text          0x000000000010b0e8      0x4ef linkl.o
                0x000000000010b2c4                LinkedList_add
                0x000000000010b40e                LinkedList_remove
                0x000000000010b4a7                LinkedList_removeFromFront
                0x000000000010b4c3                LinkedList_push
                0x000000000010b4dd                LinkedList_pop
                0x000000000010b4fa                LinkedList_peek
                0x000000000010b578                LinkedList_new
                0x000000000010b596                LinkedList_destroy
 *fill*         0x000000000010b5d7        0x1 
 .text          0x000000000010b5d8      0x2d4 string.o
                0x000000000010b5d8                String_startsWith
                0x000000000010b622                String_endsWith
                0x000000000010b68c                String_charAt
                0x000000000010b69b                String_length
                0x000000000010b6c3                String_charToInt
                0x000000000010b6d8                String_stringToInt
                0x000000000010b754                String_numberToString
                0x000000000010b7f1                String_copy
                0x000000000010b827                String_compare
                0x000000000010b86d                String_countChar
 .text          0x000000000010b8ac      0x4a9 process.o
                0x000000000010ba59                Process_new
                0x000000000010bd15                Process_destroy
 *fill*         0x000000000010bd55        0x3 
 .text          0x000000000010bd58       0x72 sched.o
                0x000000000010bd85                Scheduler_getModule
 *fill*         0x000000000010bdca        0x2 
 .text          0x000000000010bdcc      0x265 rr.o
                0x000000000010bdcc                RoundRobin_addProcess
                0x000000000010be74                RoundRobin_removeProcess
                0x000000000010bf82                RoundRobin_getNextProcess
                0x000000000010c027                RoundRobin_getCurrentProcess
 *fill*         0x000000000010c031        0x3 
 .text          0x000000000010c034      0x2e6 pm.o
                0x000000000010c11e                ProcessManager_switch
                0x000000000010c2d5                ProcessManager_getModule
 *fill*         0x000000000010c31a        0x2 
 .text          0x000000000010c31c      0x58d kbd.o
                0x000000000010c51f                Keyboard_setLeds
                0x000000000010c5bb                Keyboard_init
 *fill*         0x000000000010c8a9        0x3 
 .text          0x000000000010c8ac      0x2d9 mouse.o
                0x000000000010c97d                Mouse_init
 *fill*         0x000000000010cb85        0x3 
 .text          0x000000000010cb88      0x69e ps2.o
                0x000000000010d192                PS2Controller_send
                0x000000000010d1c1                PS2Controller_receive
                0x000000000010d1e1                PS2Controller_getModule
 *fill*         0x000000000010d226        0x2 
 .text          0x000000000010d228      0xc88 ramdisk.o
                0x000000000010ddb3                RamDisk_init
 .text          0x000000000010deb0      0x299 tar.o
                0x000000000010df8f                Tar_nextHeader
                0x000000000010e060                Tar_getHeader
                0x000000000010e0a7                Tar_getNumberOfFiles
 *fill*         0x000000000010e149        0x3 
 .text          0x000000000010e14c      0x110 vfs.o
                0x000000000010e1d8                VFS_openFile
                0x000000000010e217                VFS_getModule
 .text          0x000000000010e25c      0x1d7 user.o
                0x000000000010e379                Usermode_getModule
                0x000000000010f000                . = ALIGN (0x1000)
 *fill*         0x000000000010e433      0xbcd 

.eh_frame       0x000000000010f000     0x1e2c
 .eh_frame      0x000000000010f000       0x94 kernel.o
 .eh_frame      0x000000000010f094       0x40 vga.o
                                         0x58 (size before relaxing)
 .eh_frame      0x000000000010f0d4      0x1e0 console.o
                                        0x1f8 (size before relaxing)
 .eh_frame      0x000000000010f2b4       0xa0 sys.o
                                         0xb8 (size before relaxing)
 .eh_frame      0x000000000010f354       0x60 module.o
                                         0x78 (size before relaxing)
 .eh_frame      0x000000000010f3b4       0xc0 gdt.o
                                         0xd8 (size before relaxing)
 .eh_frame      0x000000000010f474       0xcc pic.o
                                         0xe4 (size before relaxing)
 .eh_frame      0x000000000010f540      0x108 idt.o
                                        0x120 (size before relaxing)
 .eh_frame      0x000000000010f648       0xe0 pit.o
                                         0xf8 (size before relaxing)
 .eh_frame      0x000000000010f728       0x44 cpu.o
                                         0x5c (size before relaxing)
 .eh_frame      0x000000000010f76c       0xb8 bitmap.o
                                         0xd0 (size before relaxing)
 .eh_frame      0x000000000010f824       0x80 stack.o
                                         0x98 (size before relaxing)
 .eh_frame      0x000000000010f8a4       0xa0 math.o
                                         0xb8 (size before relaxing)
 .eh_frame      0x000000000010f944       0x40 pmm.o
                                         0x58 (size before relaxing)
 .eh_frame      0x000000000010f984       0x80 smm.o
                                         0x98 (size before relaxing)
 .eh_frame      0x000000000010fa04       0xe0 bmm.o
                                         0xf8 (size before relaxing)
 .eh_frame      0x000000000010fae4      0x248 vmm.o
                                        0x260 (size before relaxing)
 .eh_frame      0x000000000010fd2c       0x80 heap.o
                                         0x98 (size before relaxing)
 .eh_frame      0x000000000010fdac      0x5dc dl.o
                                        0x5f4 (size before relaxing)
 .eh_frame      0x0000000000110388      0x140 arrlist.o
                                        0x158 (size before relaxing)
 .eh_frame      0x00000000001104c8       0x80 dumbH.o
                                         0x98 (size before relaxing)
 .eh_frame      0x0000000000110548      0x140 linkl.o
                                        0x158 (size before relaxing)
 .eh_frame      0x0000000000110688      0x140 string.o
                                        0x158 (size before relaxing)
 .eh_frame      0x00000000001107c8       0x80 process.o
                                         0x98 (size before relaxing)
 .eh_frame      0x0000000000110848       0x40 sched.o
                                         0x58 (size before relaxing)
 .eh_frame      0x0000000000110888       0x80 rr.o
                                         0x98 (size before relaxing)
 .eh_frame      0x0000000000110908       0x9c pm.o
                                         0xb4 (size before relaxing)
 .eh_frame      0x00000000001109a4       0x80 kbd.o
                                         0x98 (size before relaxing)
 .eh_frame      0x0000000000110a24       0x60 mouse.o
                                         0x78 (size before relaxing)
 .eh_frame      0x0000000000110a84      0x144 ps2.o
                                        0x15c (size before relaxing)
 .eh_frame      0x0000000000110bc8       0xf8 ramdisk.o
                                        0x110 (size before relaxing)
 .eh_frame      0x0000000000110cc0       0x80 tar.o
                                         0x98 (size before relaxing)
 .eh_frame      0x0000000000110d40       0x80 vfs.o
                                         0x98 (size before relaxing)
 .eh_frame      0x0000000000110dc0       0x6c user.o
                                         0x84 (size before relaxing)

.iplt           0x0000000000110e30        0x0
 .iplt          0x0000000000000000        0x0 start.o

.rel.dyn        0x0000000000110e2c        0x0
 .rel.iplt      0x0000000000000000        0x0 start.o
 .rel.text      0x0000000000000000        0x0 start.o

.data           0x0000000000110e40     0x11c0
                0x0000000000110e40                data = .
                0x0000000000110e40                _data = .
                0x0000000000110e40                __data = .
 *(.data)
 .data          0x0000000000110e40        0x0 kernel.o
 .data          0x0000000000110e40        0x0 vga.o
 .data          0x0000000000110e40        0x0 console.o
 .data          0x0000000000110e40        0x0 sys.o
 .data          0x0000000000110e40        0x0 module.o
 .data          0x0000000000110e40        0x0 gdt.o
 .data          0x0000000000110e40        0x0 pic.o
 .data          0x0000000000110e40        0x0 idt.o
 .data          0x0000000000110e40        0x0 pit.o
 .data          0x0000000000110e40        0x0 cpu.o
 .data          0x0000000000110e40        0x0 bitmap.o
 .data          0x0000000000110e40        0x0 stack.o
 .data          0x0000000000110e40        0x0 math.o
 .data          0x0000000000110e40        0x0 pmm.o
 .data          0x0000000000110e40        0x0 smm.o
 .data          0x0000000000110e40        0x0 bmm.o
 .data          0x0000000000110e40        0x0 vmm.o
 .data          0x0000000000110e40        0x0 heap.o
 .data          0x0000000000110e40        0x0 dl.o
 .data          0x0000000000110e40        0x0 arrlist.o
 .data          0x0000000000110e40        0x4 dumbH.o
 .data          0x0000000000110e44        0x0 linkl.o
 .data          0x0000000000110e44        0x0 string.o
 .data          0x0000000000110e44        0x0 process.o
 .data          0x0000000000110e44        0x0 sched.o
 .data          0x0000000000110e44        0x0 rr.o
 .data          0x0000000000110e44        0x0 pm.o
 .data          0x0000000000110e44        0x0 kbd.o
 .data          0x0000000000110e44        0x0 mouse.o
 .data          0x0000000000110e44        0x0 ps2.o
 .data          0x0000000000110e44        0x0 ramdisk.o
 .data          0x0000000000110e44        0x0 tar.o
 .data          0x0000000000110e44        0x0 vfs.o
 .data          0x0000000000110e44        0x8 user.o
 *(.rodata)
 .rodata        0x0000000000110e4c       0x61 kernel.o
 .rodata        0x0000000000110ead       0x12 vga.o
 .rodata        0x0000000000110ebf       0x6d console.o
 .rodata        0x0000000000110f2c        0xe sys.o
 .rodata        0x0000000000110f3a       0x3d module.o
 .rodata        0x0000000000110f77       0x18 gdt.o
 .rodata        0x0000000000110f8f        0xa pic.o
 *fill*         0x0000000000110f99        0x3 
 .rodata        0x0000000000110f9c       0x9f idt.o
 .rodata        0x000000000011103b        0x9 pit.o
 .rodata        0x0000000000111044       0x28 cpu.o
 .rodata        0x000000000011106c       0x41 bitmap.o
 .rodata        0x00000000001110ad       0x40 stack.o
 .rodata        0x00000000001110ed       0x18 pmm.o
 .rodata        0x0000000000111105       0x46 smm.o
 .rodata        0x000000000011114b       0x5f bmm.o
 *fill*         0x00000000001111aa        0x2 
 .rodata        0x00000000001111ac       0xcc vmm.o
 .rodata        0x0000000000111278       0x8f heap.o
 .rodata        0x0000000000111307       0x41 dl.o
 .rodata        0x0000000000111348       0x44 arrlist.o
 .rodata        0x000000000011138c       0x50 dumbH.o
 .rodata        0x00000000001113dc       0x45 linkl.o
 .rodata        0x0000000000111421       0x11 string.o
 .rodata        0x0000000000111432       0x5e process.o
 .rodata        0x0000000000111490       0x12 sched.o
 *fill*         0x00000000001114a2        0x2 
 .rodata        0x00000000001114a4       0x4c rr.o
 .rodata        0x00000000001114f0       0x6c pm.o
 *fill*         0x000000000011155c        0x4 
 .rodata        0x0000000000111560      0x2eb kbd.o
 *fill*         0x000000000011184b        0x1 
 .rodata        0x000000000011184c       0xc4 mouse.o
 .rodata        0x0000000000111910      0x13e ps2.o
 *fill*         0x0000000000111a4e        0x2 
 .rodata        0x0000000000111a50       0xce ramdisk.o
 .rodata        0x0000000000111b1e       0x45 tar.o
 .rodata        0x0000000000111b63       0x16 vfs.o
 .rodata        0x0000000000111b79       0x4c user.o
                0x0000000000112000                . = ALIGN (0x1000)
 *fill*         0x0000000000111bc5      0x43b 

.igot.plt       0x0000000000112000        0x0
 .igot.plt      0x0000000000000000        0x0 start.o

.bss            0x0000000000112000    0x1203c
                0x0000000000112000                bss = .
                0x0000000000112000                _bss = .
                0x0000000000112000                __bss = .
 *(.bss)
 .bss           0x0000000000112000     0xff00 start.o
 .bss           0x0000000000121f00        0x0 kernel.o
 .bss           0x0000000000121f00       0x34 vga.o
 *fill*         0x0000000000121f34        0xc 
 .bss           0x0000000000121f40       0x37 console.o
 *fill*         0x0000000000121f77        0x1 
 .bss           0x0000000000121f78        0x0 sys.o
 *fill*         0x0000000000121f78        0x8 
 .bss           0x0000000000121f80       0x84 module.o
 *fill*         0x0000000000122004       0x1c 
 .bss           0x0000000000122020       0xec gdt.o
 *fill*         0x000000000012210c       0x14 
 .bss           0x0000000000122120       0x34 pic.o
 *fill*         0x0000000000122154        0xc 
 .bss           0x0000000000122160      0xc60 idt.o
 .bss           0x0000000000122dc0       0x38 pit.o
 .bss           0x0000000000122df8        0x0 cpu.o
 .bss           0x0000000000122df8        0x0 bitmap.o
 .bss           0x0000000000122df8        0x0 stack.o
 .bss           0x0000000000122df8        0x0 math.o
 *fill*         0x0000000000122df8        0x8 
 .bss           0x0000000000122e00       0x3c pmm.o
 .bss           0x0000000000122e3c       0x14 smm.o
 .bss           0x0000000000122e50       0x18 bmm.o
 *fill*         0x0000000000122e68       0x18 
 .bss           0x0000000000122e80       0x38 vmm.o
 *fill*         0x0000000000122eb8        0x8 
 .bss           0x0000000000122ec0       0x38 heap.o
 *fill*         0x0000000000122ef8        0x8 
 .bss           0x0000000000122f00      0x1f8 dl.o
 .bss           0x00000000001230f8        0x0 arrlist.o
 .bss           0x00000000001230f8        0x4 dumbH.o
 .bss           0x00000000001230fc        0x0 linkl.o
 *fill*         0x00000000001230fc        0x4 
 .bss           0x0000000000123100       0x20 string.o
 .bss           0x0000000000123120        0x4 process.o
 *fill*         0x0000000000123124       0x1c 
 .bss           0x0000000000123140       0x34 sched.o
 .bss           0x0000000000123174        0x8 rr.o
 *fill*         0x000000000012317c        0x4 
 .bss           0x0000000000123180       0x34 pm.o
 .bss           0x00000000001231b4        0x4 kbd.o
 .bss           0x00000000001231b8        0x4 mouse.o
 *fill*         0x00000000001231bc        0x4 
 .bss           0x00000000001231c0       0x54 ps2.o
 *fill*         0x0000000000123214        0xc 
 .bss           0x0000000000123220       0xe4 ramdisk.o
 .bss           0x0000000000123304        0x0 tar.o
 *fill*         0x0000000000123304       0x1c 
 .bss           0x0000000000123320       0x38 vfs.o
 *fill*         0x0000000000123358        0x8 
 .bss           0x0000000000123360       0x38 user.o
                0x0000000000124000                . = ALIGN (0x1000)
 *fill*         0x0000000000123398      0xc68 
 COMMON         0x0000000000124000        0x4 kernel.o
                0x0000000000124000                multibootInfo
 COMMON         0x0000000000124004        0x6 vga.o
                0x0000000000124004                vgaRam
                0x0000000000124008                vgaHeight
                0x0000000000124009                vgaWidth
 *fill*         0x000000000012400a        0x2 
 COMMON         0x000000000012400c        0xc pmm.o
                0x000000000012400c                PhysicalMemory_getInfo
                0x0000000000124010                PhysicalMemory_allocateFrame
                0x0000000000124014                PhysicalMemory_freeFrame
 COMMON         0x0000000000124018       0x14 heap.o
                0x0000000000124018                HeapMemory_realloc
                0x000000000012401c                errno
                0x0000000000124020                HeapMemory_free
                0x0000000000124024                HeapMemory_calloc
                0x0000000000124028                HeapMemory_alloc
 COMMON         0x000000000012402c       0x10 sched.o
                0x000000000012402c                Scheduler_removeProcess
                0x0000000000124030                Scheduler_addProcess
                0x0000000000124034                Scheduler_getNextProcess
                0x0000000000124038                Scheduler_getCurrentProcess
                0x000000000012403c                end = .
                0x000000000012403c                _end = .
                0x000000000012403c                __end = .
LOAD start.o
LOAD kernel.o
LOAD vga.o
LOAD console.o
LOAD sys.o
LOAD module.o
LOAD gdt.o
LOAD pic.o
LOAD idt.o
LOAD idtAsm.o
LOAD pit.o
LOAD cpu.o
LOAD bitmap.o
LOAD stack.o
LOAD math.o
LOAD pmm.o
LOAD smm.o
LOAD bmm.o
LOAD vmm.o
LOAD heap.o
LOAD dl.o
LOAD arrlist.o
LOAD dumbH.o
LOAD linkl.o
LOAD string.o
LOAD process.o
LOAD sched.o
LOAD rr.o
LOAD pm.o
LOAD kbd.o
LOAD mouse.o
LOAD ps2.o
LOAD ramdisk.o
LOAD tar.o
LOAD vfs.o
LOAD user.o
OUTPUT(bootloader/kernel elf32-i386)

.comment        0x0000000000000000       0x11
 .comment       0x0000000000000000       0x11 kernel.o
                                         0x12 (size before relaxing)
 .comment       0x0000000000000000       0x12 vga.o
 .comment       0x0000000000000000       0x12 console.o
 .comment       0x0000000000000000       0x12 sys.o
 .comment       0x0000000000000000       0x12 module.o
 .comment       0x0000000000000000       0x12 gdt.o
 .comment       0x0000000000000000       0x12 pic.o
 .comment       0x0000000000000000       0x12 idt.o
 .comment       0x0000000000000000       0x12 pit.o
 .comment       0x0000000000000000       0x12 cpu.o
 .comment       0x0000000000000000       0x12 bitmap.o
 .comment       0x0000000000000000       0x12 stack.o
 .comment       0x0000000000000000       0x12 math.o
 .comment       0x0000000000000000       0x12 pmm.o
 .comment       0x0000000000000000       0x12 smm.o
 .comment       0x0000000000000000       0x12 bmm.o
 .comment       0x0000000000000000       0x12 vmm.o
 .comment       0x0000000000000000       0x12 heap.o
 .comment       0x0000000000000000       0x12 dl.o
 .comment       0x0000000000000000       0x12 arrlist.o
 .comment       0x0000000000000000       0x12 dumbH.o
 .comment       0x0000000000000000       0x12 linkl.o
 .comment       0x0000000000000000       0x12 string.o
 .comment       0x0000000000000000       0x12 process.o
 .comment       0x0000000000000000       0x12 sched.o
 .comment       0x0000000000000000       0x12 rr.o
 .comment       0x0000000000000000       0x12 pm.o
 .comment       0x0000000000000000       0x12 kbd.o
 .comment       0x0000000000000000       0x12 mouse.o
 .comment       0x0000000000000000       0x12 ps2.o
 .comment       0x0000000000000000       0x12 ramdisk.o
 .comment       0x0000000000000000       0x12 tar.o
 .comment       0x0000000000000000       0x12 vfs.o
 .comment       0x0000000000000000       0x12 user.o
