
Allocating common symbols
Common symbol       size              file

vgaRam              0x4               kernel.o
vgaHeight           0x1               kernel.o
vgaWidth            0x1               kernel.o

Memory Configuration

Name             Origin             Length             Attributes
*default*        0x0000000000000000 0xffffffffffffffff

Linker script and memory map


.text           0x0000000000100000     0x1000
                0x0000000000100000                text = .
                0x0000000000100000                _text = .
                0x0000000000100000                __text = .
 *(.text)
 .text          0x0000000000100000       0x2c start.o
                0x0000000000100000                mbHead
                0x0000000000100020                Start
 .text          0x000000000010002c       0x6e kernel.o
                0x000000000010002c                Kernel
 *fill*         0x000000000010009a        0x2 00
 .text          0x000000000010009c       0xcb io.o
                0x000000000010009c                IO_outB
                0x00000000001000b8                IO_outW
                0x00000000001000d6                IO_outL
                0x00000000001000ec                IO_inB
                0x0000000000100114                IO_inW
                0x000000000010013f                IO_inL
 *fill*         0x0000000000100167        0x1 00
 .text          0x0000000000100168       0x4f vga.o
                0x0000000000100185                VGA_getModule
 *fill*         0x00000000001001b7        0x1 00
 .text          0x00000000001001b8      0x596 console.o
                0x00000000001004e1                Console_printf
                0x0000000000100596                Console_printChar
                0x0000000000100669                Console_printString
                0x0000000000100691                Console_clearScreen
                0x00000000001006fc                Console_setColor
                0x0000000000100712                Console_getModule
 *fill*         0x000000000010074e        0x2 00
 .text          0x0000000000100750       0x53 sys.o
                0x0000000000100750                Sys_restart
                0x000000000010076c                Sys_haltCPU
                0x0000000000100772                Sys_panic
 *fill*         0x00000000001007a3        0x1 00
 .text          0x00000000001007a4      0x26b module.o
                0x00000000001007a4                Module_load
                0x0000000000100a0a                Module_unload
 *fill*         0x0000000000100a0f        0x1 00
 .text          0x0000000000100a10      0x1ad mem.o
                0x0000000000100a10                Memory_set
                0x0000000000100aad                Memory_copy
 *fill*         0x0000000000100bbd        0x3 00
 .text          0x0000000000100bc0      0x379 gdt.o
                0x0000000000100f07                GDT_getModule
 *fill*         0x0000000000100f39        0x7 00
 .text          0x0000000000100f40        0x8 gdtAsm.o
                0x0000000000100f40                GDT_farJump
                0x0000000000101000                . = ALIGN (0x1000)
 *fill*         0x0000000000100f48       0xb8 00

.eh_frame       0x0000000000101000      0x440
 .eh_frame      0x0000000000101000       0x34 kernel.o
 .eh_frame      0x0000000000101034       0xcc io.o
                                         0xe4 (size before relaxing)
 .eh_frame      0x0000000000101100       0x40 vga.o
                                         0x58 (size before relaxing)
 .eh_frame      0x0000000000101140      0x1c0 console.o
                                        0x1d8 (size before relaxing)
 .eh_frame      0x0000000000101300       0x60 sys.o
                                         0x78 (size before relaxing)
 .eh_frame      0x0000000000101360       0x40 module.o
                                         0x58 (size before relaxing)
 .eh_frame      0x00000000001013a0       0x40 mem.o
                                         0x58 (size before relaxing)
 .eh_frame      0x00000000001013e0       0x60 gdt.o
                                         0x78 (size before relaxing)

.iplt           0x0000000000101440        0x0
 .iplt          0x0000000000000000        0x0 start.o

.rel.dyn        0x0000000000101440        0x0
 .rel.iplt      0x0000000000000000        0x0 start.o
 .rel.text      0x0000000000000000        0x0 start.o

.data           0x0000000000101440      0xbc0
                0x0000000000101440                data = .
                0x0000000000101440                _data = .
                0x0000000000101440                __data = .
 *(.data)
 .data          0x0000000000101440        0x0 kernel.o
 .data          0x0000000000101440        0x0 io.o
 .data          0x0000000000101440        0x0 vga.o
 .data          0x0000000000101440        0x0 console.o
 .data          0x0000000000101440        0x0 sys.o
 .data          0x0000000000101440        0x0 module.o
 .data          0x0000000000101440        0x0 mem.o
 .data          0x0000000000101440        0x0 gdt.o
 *(.rodata)
 .rodata        0x0000000000101440        0xd kernel.o
 .rodata        0x000000000010144d       0x12 vga.o
 .rodata        0x000000000010145f       0x66 console.o
 .rodata        0x00000000001014c5        0xe sys.o
 .rodata        0x00000000001014d3       0x3d module.o
 .rodata        0x0000000000101510       0x3d mem.o
 .rodata        0x000000000010154d       0x18 gdt.o
                0x0000000000102000                . = ALIGN (0x1000)
 *fill*         0x0000000000101565      0xa9b 00

.igot.plt       0x0000000000102000        0x0
 .igot.plt      0x0000000000000000        0x0 start.o

.bss            0x0000000000102000    0x11006
                0x0000000000102000                bss = .
                0x0000000000102000                _bss = .
                0x0000000000102000                __bss = .
 *(.bss)
 .bss           0x0000000000102000     0xff00 start.o
 .bss           0x0000000000111f00        0x0 kernel.o
 .bss           0x0000000000111f00        0x0 io.o
 .bss           0x0000000000111f00       0x34 vga.o
 *fill*         0x0000000000111f34        0xc 00
 .bss           0x0000000000111f40       0x60 console.o
 .bss           0x0000000000111fa0        0x0 sys.o
 .bss           0x0000000000111fa0       0x84 module.o
 .bss           0x0000000000112024        0x0 mem.o
 *fill*         0x0000000000112024       0x1c 00
 .bss           0x0000000000112040       0x6e gdt.o
                0x0000000000113000                . = ALIGN (0x1000)
 *fill*         0x00000000001120ae      0xf52 00
 COMMON         0x0000000000113000        0x6 kernel.o
                0x0000000000113000                vgaRam
                0x0000000000113004                vgaHeight
                0x0000000000113005                vgaWidth
                0x0000000000113006                end = .
                0x0000000000113006                _end = .
                0x0000000000113006                __end = .
LOAD start.o
LOAD kernel.o
LOAD io.o
LOAD vga.o
LOAD console.o
LOAD sys.o
LOAD module.o
LOAD mem.o
LOAD gdt.o
LOAD gdtAsm.o
OUTPUT(bootloader/kernel elf32-i386)

.comment        0x0000000000000000       0x11
 .comment       0x0000000000000000       0x11 kernel.o
                                         0x12 (size before relaxing)
 .comment       0x0000000000000000       0x12 io.o
 .comment       0x0000000000000000       0x12 vga.o
 .comment       0x0000000000000000       0x12 console.o
 .comment       0x0000000000000000       0x12 sys.o
 .comment       0x0000000000000000       0x12 module.o
 .comment       0x0000000000000000       0x12 mem.o
 .comment       0x0000000000000000       0x12 gdt.o
